target datalayout = "e-m:e-p270:32:32-p271:32:32-p272:64:64-i64:64-i128:128-f80:128-n8:16:32:64-S128"
target triple = "x86_64-pc-linux-gnu"

%struct.AVCodecContext = type { ptr, i32, i32, ptr, i32, i32, ptr, ptr, ptr, i64, i32, i32, ptr, i32, %struct.AVRational, %struct.AVRational, %struct.AVRational, i32, i32, i32, i32, i32, %struct.AVRational, i32, i32, i32, i32, i32, i32, i32, i32, i32, i32, i32, ptr, ptr, i32, float, float, float, float, float, float, float, float, float, i32, i32, i32, i32, i32, i32, i32, i32, i32, i32, i32, i32, ptr, ptr, ptr, i32, i32, i32, i32, i32, i32, i32, i32, i32, i32, %struct.AVChannelLayout, i32, i32, i32, i32, i32, i32, i32, i32, ptr, i32, i32, i32, float, float, i32, i32, i32, i32, i32, ptr, i64, i64, float, float, i32, i32, ptr, ptr, i32, i32, i32, i32, i32, ptr, ptr, ptr, ptr, i32, i32, [8 x i64], i32, i32, i32, i32, i32, i32, i32, ptr, ptr, i32, i32, i32, i32, i32, i32, i32, i32, i32, i32, ptr, ptr, i32, i32, ptr, ptr, ptr, ptr, i32, i32, i64, i32, i32, i64, ptr, i64, ptr, i32, ptr, i32 }
%struct.AVRational = type { i32, i32 }
%struct.AVChannelLayout = type { i32, i32, %union.anon.0, ptr }
%union.anon.0 = type { i64 }
%struct.RKAContext = type { ptr, %struct.ACoder, [2 x %struct.ChContext], i32, i32, i32, i32, i32, i32, i32, i32, [2 x [257 x i32]], %struct.AdaptiveModel, %struct.AdaptiveModel }
%struct.ACoder = type { %struct.GetByteContext, i32, i32, i32 }
%struct.GetByteContext = type { ptr, ptr, ptr }
%struct.ChContext = type { i32, i32, i32, i32, i32, ptr, ptr, [2 x ptr], %struct.AdaptiveModel, %struct.AdaptiveModel, %struct.AdaptiveModel, [11 x %struct.AdaptiveModel], [4 x [11 x %struct.Model64]], [133632 x i32], [133632 x i32] }
%struct.Model64 = type { [2 x i32], [2 x i32], i32, i32, [65 x i16], [65 x i16] }
%struct.AdaptiveModel = type { i32, i32, i32, i16, i16, i16, [2 x ptr] }

@.str.2 = private unnamed_addr constant [13 x i8] c"qfactor: %d\0A\00", align 1

; Function Attrs: alwaysinline nounwind willreturn memory(none) uwtable
define internal i32 @av_clip_c(i32 noundef %0, i32 noundef %1, i32 noundef %2) #4 {
  %4 = alloca i32, align 4
  %5 = alloca i32, align 4
  %6 = alloca i32, align 4
  %7 = alloca i32, align 4
  store i32 %0, ptr %5, align 4, !tbaa !50
  store i32 %1, ptr %6, align 4, !tbaa !50
  store i32 %2, ptr %7, align 4, !tbaa !50
  %8 = load i32, ptr %5, align 4, !tbaa !50
  %9 = load i32, ptr %6, align 4, !tbaa !50
  %10 = icmp slt i32 %8, %9
  br i1 %10, label %11, label %13

11:                                               ; preds = %3
  %12 = load i32, ptr %6, align 4, !tbaa !50
  store i32 %12, ptr %4, align 4
  br label %21

13:                                               ; preds = %3
  %14 = load i32, ptr %5, align 4, !tbaa !50
  %15 = load i32, ptr %7, align 4, !tbaa !50
  %16 = icmp sgt i32 %14, %15
  br i1 %16, label %17, label %19

17:                                               ; preds = %13
  %18 = load i32, ptr %7, align 4, !tbaa !50
  store i32 %18, ptr %4, align 4
  br label %21

19:                                               ; preds = %13
  %20 = load i32, ptr %5, align 4, !tbaa !50
  store i32 %20, ptr %4, align 4
  br label %21

21:                                               ; preds = %19, %17, %11
  %22 = load i32, ptr %4, align 4
  ret i32 %22
}

; Function Attrs: cold nounwind optsize uwtable
define internal i32 @rka_decode_init(ptr noundef %0) #0 {
  %2 = alloca i32, align 4
  %3 = alloca ptr, align 8
  %4 = alloca ptr, align 8
  %5 = alloca i32, align 4
  %6 = alloca i32, align 4
  store ptr %0, ptr %3, align 8, !tbaa !4
  call void @llvm.lifetime.start.p0(i64 8, ptr %4) #9
  %7 = load ptr, ptr %3, align 8, !tbaa !4
  %8 = getelementptr inbounds nuw %struct.AVCodecContext, ptr %7, i32 0, i32 6
  %9 = load ptr, ptr %8, align 8, !tbaa !9
  store ptr %9, ptr %4, align 8, !tbaa !29
  call void @llvm.lifetime.start.p0(i64 4, ptr %5) #9
  %10 = load ptr, ptr %3, align 8, !tbaa !4
  %11 = getelementptr inbounds nuw %struct.AVCodecContext, ptr %10, i32 0, i32 13
  %12 = load i32, ptr %11, align 8, !tbaa !31
  %13 = icmp slt i32 %12, 16
  br i1 %13, label %14, label %15

14:                                               ; preds = %1
  store i32 -1094995529, ptr %2, align 4
  store i32 1, ptr %6, align 4
  br label %192

15:                                               ; preds = %1
  %16 = load ptr, ptr %3, align 8, !tbaa !4
  %17 = getelementptr inbounds nuw %struct.AVCodecContext, ptr %16, i32 0, i32 12
  %18 = load ptr, ptr %17, align 8, !tbaa !32
  %19 = getelementptr inbounds i8, ptr %18, i64 13
  %20 = load i8, ptr %19, align 1, !tbaa !33
  %21 = zext i8 %20 to i32
  %22 = load ptr, ptr %3, align 8, !tbaa !4
  %23 = getelementptr inbounds nuw %struct.AVCodecContext, ptr %22, i32 0, i32 115
  store i32 %21, ptr %23, align 4, !tbaa !34
  %24 = load ptr, ptr %4, align 8, !tbaa !29
  %25 = getelementptr inbounds nuw %struct.RKAContext, ptr %24, i32 0, i32 3
  store i32 %21, ptr %25, align 8, !tbaa !35
  %26 = load ptr, ptr %4, align 8, !tbaa !29
  %27 = getelementptr inbounds nuw %struct.RKAContext, ptr %26, i32 0, i32 3
  %28 = load i32, ptr %27, align 8, !tbaa !35
  switch i32 %28, label %35 [
    i32 8, label %29
    i32 16, label %32
  ]

29:                                               ; preds = %15
  %30 = load ptr, ptr %3, align 8, !tbaa !4
  %31 = getelementptr inbounds nuw %struct.AVCodecContext, ptr %30, i32 0, i32 70
  store i32 5, ptr %31, align 4, !tbaa !41
  br label %36

32:                                               ; preds = %15
  %33 = load ptr, ptr %3, align 8, !tbaa !4
  %34 = getelementptr inbounds nuw %struct.AVCodecContext, ptr %33, i32 0, i32 70
  store i32 6, ptr %34, align 4, !tbaa !41
  br label %36

35:                                               ; preds = %15
  store i32 -1094995529, ptr %2, align 4
  store i32 1, ptr %6, align 4
  br label %192

36:                                               ; preds = %32, %29
  %37 = load ptr, ptr %3, align 8, !tbaa !4
  %38 = getelementptr inbounds nuw %struct.AVCodecContext, ptr %37, i32 0, i32 71
  call void @av_channel_layout_uninit(ptr noundef %38)
  %39 = load ptr, ptr %3, align 8, !tbaa !4
  %40 = getelementptr inbounds nuw %struct.AVCodecContext, ptr %39, i32 0, i32 12
  %41 = load ptr, ptr %40, align 8, !tbaa !32
  %42 = getelementptr inbounds i8, ptr %41, i64 12
  %43 = load i8, ptr %42, align 1, !tbaa !33
  %44 = zext i8 %43 to i32
  %45 = load ptr, ptr %3, align 8, !tbaa !4
  %46 = getelementptr inbounds nuw %struct.AVCodecContext, ptr %45, i32 0, i32 71
  %47 = getelementptr inbounds nuw %struct.AVChannelLayout, ptr %46, i32 0, i32 1
  store i32 %44, ptr %47, align 4, !tbaa !42
  %48 = load ptr, ptr %4, align 8, !tbaa !29
  %49 = getelementptr inbounds nuw %struct.RKAContext, ptr %48, i32 0, i32 5
  store i32 %44, ptr %49, align 8, !tbaa !43
  %50 = load ptr, ptr %4, align 8, !tbaa !29
  %51 = getelementptr inbounds nuw %struct.RKAContext, ptr %50, i32 0, i32 5
  %52 = load i32, ptr %51, align 8, !tbaa !43
  %53 = icmp slt i32 %52, 1
  br i1 %53, label %59, label %54

54:                                               ; preds = %36
  %55 = load ptr, ptr %4, align 8, !tbaa !29
  %56 = getelementptr inbounds nuw %struct.RKAContext, ptr %55, i32 0, i32 5
  %57 = load i32, ptr %56, align 8, !tbaa !43
  %58 = icmp sgt i32 %57, 2
  br i1 %58, label %59, label %60

59:                                               ; preds = %54, %36
  store i32 -1094995529, ptr %2, align 4
  store i32 1, ptr %6, align 4
  br label %192

60:                                               ; preds = %54
  %61 = load ptr, ptr %4, align 8, !tbaa !29
  %62 = getelementptr inbounds nuw %struct.RKAContext, ptr %61, i32 0, i32 5
  %63 = load i32, ptr %62, align 8, !tbaa !43
  %64 = load ptr, ptr %3, align 8, !tbaa !4
  %65 = getelementptr inbounds nuw %struct.AVCodecContext, ptr %64, i32 0, i32 115
  %66 = load i32, ptr %65, align 4, !tbaa !34
  %67 = ashr i32 %66, 3
  %68 = mul nsw i32 %63, %67
  %69 = load ptr, ptr %4, align 8, !tbaa !29
  %70 = getelementptr inbounds nuw %struct.RKAContext, ptr %69, i32 0, i32 4
  store i32 %68, ptr %70, align 4, !tbaa !44
  %71 = load ptr, ptr %3, align 8, !tbaa !4
  %72 = getelementptr inbounds nuw %struct.AVCodecContext, ptr %71, i32 0, i32 12
  %73 = load ptr, ptr %72, align 8, !tbaa !32
  %74 = getelementptr inbounds i8, ptr %73, i64 4
  %75 = load i32, ptr %74, align 1, !tbaa !33
  %76 = load ptr, ptr %4, align 8, !tbaa !29
  %77 = getelementptr inbounds nuw %struct.RKAContext, ptr %76, i32 0, i32 4
  %78 = load i32, ptr %77, align 4, !tbaa !44
  %79 = udiv i32 %75, %78
  %80 = load ptr, ptr %4, align 8, !tbaa !29
  %81 = getelementptr inbounds nuw %struct.RKAContext, ptr %80, i32 0, i32 9
  store i32 %79, ptr %81, align 8, !tbaa !45
  %82 = load ptr, ptr %4, align 8, !tbaa !29
  %83 = getelementptr inbounds nuw %struct.RKAContext, ptr %82, i32 0, i32 10
  store i32 %79, ptr %83, align 4, !tbaa !46
  %84 = load ptr, ptr %4, align 8, !tbaa !29
  %85 = getelementptr inbounds nuw %struct.RKAContext, ptr %84, i32 0, i32 4
  %86 = load i32, ptr %85, align 4, !tbaa !44
  %87 = sdiv i32 131072, %86
  %88 = load ptr, ptr %4, align 8, !tbaa !29
  %89 = getelementptr inbounds nuw %struct.RKAContext, ptr %88, i32 0, i32 7
  store i32 %87, ptr %89, align 8, !tbaa !47
  %90 = load ptr, ptr %4, align 8, !tbaa !29
  %91 = getelementptr inbounds nuw %struct.RKAContext, ptr %90, i32 0, i32 9
  %92 = load i32, ptr %91, align 8, !tbaa !45
  %93 = load ptr, ptr %4, align 8, !tbaa !29
  %94 = getelementptr inbounds nuw %struct.RKAContext, ptr %93, i32 0, i32 7
  %95 = load i32, ptr %94, align 8, !tbaa !47
  %96 = urem i32 %92, %95
  %97 = load ptr, ptr %4, align 8, !tbaa !29
  %98 = getelementptr inbounds nuw %struct.RKAContext, ptr %97, i32 0, i32 8
  store i32 %96, ptr %98, align 4, !tbaa !48
  %99 = load ptr, ptr %3, align 8, !tbaa !4
  %100 = getelementptr inbounds nuw %struct.AVCodecContext, ptr %99, i32 0, i32 12
  %101 = load ptr, ptr %100, align 8, !tbaa !32
  %102 = getelementptr inbounds i8, ptr %101, i64 15
  %103 = load i8, ptr %102, align 1, !tbaa !33
  %104 = zext i8 %103 to i32
  %105 = and i32 %104, 1
  %106 = load ptr, ptr %4, align 8, !tbaa !29
  %107 = getelementptr inbounds nuw %struct.RKAContext, ptr %106, i32 0, i32 6
  store i32 %105, ptr %107, align 4, !tbaa !49
  %108 = load ptr, ptr %3, align 8, !tbaa !4
  %109 = getelementptr inbounds nuw %struct.AVCodecContext, ptr %108, i32 0, i32 12
  %110 = load ptr, ptr %109, align 8, !tbaa !32
  %111 = getelementptr inbounds i8, ptr %110, i64 14
  %112 = load i8, ptr %111, align 1, !tbaa !33
  %113 = zext i8 %112 to i32
  %114 = and i32 %113, 15
  store i32 %114, ptr %5, align 4, !tbaa !50
  %115 = load ptr, ptr %3, align 8, !tbaa !4
  %116 = getelementptr inbounds nuw %struct.AVCodecContext, ptr %115, i32 0, i32 12
  %117 = load ptr, ptr %116, align 8, !tbaa !32
  %118 = getelementptr inbounds i8, ptr %117, i64 15
  %119 = load i8, ptr %118, align 1, !tbaa !33
  %120 = zext i8 %119 to i32
  %121 = and i32 %120, 4
  %122 = icmp ne i32 %121, 0
  br i1 %122, label %123, label %126

123:                                              ; preds = %60
  %124 = load i32, ptr %5, align 4, !tbaa !50
  %125 = sub nsw i32 0, %124
  store i32 %125, ptr %5, align 4, !tbaa !50
  br label %126

126:                                              ; preds = %123, %60
  %127 = load i32, ptr %5, align 4, !tbaa !50
  %128 = icmp slt i32 %127, 0
  br i1 %128, label %129, label %130

129:                                              ; preds = %126
  br label %132

130:                                              ; preds = %126
  %131 = load i32, ptr %5, align 4, !tbaa !50
  br label %132

132:                                              ; preds = %130, %129
  %133 = phi i32 [ 2, %129 ], [ %131, %130 ]
  %134 = load ptr, ptr %4, align 8, !tbaa !29
  %135 = getelementptr inbounds nuw %struct.RKAContext, ptr %134, i32 0, i32 2
  %136 = getelementptr inbounds [2 x %struct.ChContext], ptr %135, i64 0, i64 1
  %137 = getelementptr inbounds nuw %struct.ChContext, ptr %136, i32 0, i32 0
  store i32 %133, ptr %137, align 8, !tbaa !51
  %138 = load ptr, ptr %4, align 8, !tbaa !29
  %139 = getelementptr inbounds nuw %struct.RKAContext, ptr %138, i32 0, i32 2
  %140 = getelementptr inbounds [2 x %struct.ChContext], ptr %139, i64 0, i64 0
  %141 = getelementptr inbounds nuw %struct.ChContext, ptr %140, i32 0, i32 0
  store i32 %133, ptr %141, align 8, !tbaa !51
  %142 = load i32, ptr %5, align 4, !tbaa !50
  %143 = icmp slt i32 %142, 0
  br i1 %143, label %144, label %147

144:                                              ; preds = %132
  %145 = load i32, ptr %5, align 4, !tbaa !50
  %146 = sub nsw i32 0, %145
  br label %148

147:                                              ; preds = %132
  br label %148

148:                                              ; preds = %147, %144
  %149 = phi i32 [ %146, %144 ], [ 0, %147 ]
  %150 = load ptr, ptr %4, align 8, !tbaa !29
  %151 = getelementptr inbounds nuw %struct.RKAContext, ptr %150, i32 0, i32 2
  %152 = getelementptr inbounds [2 x %struct.ChContext], ptr %151, i64 0, i64 0
  %153 = getelementptr inbounds nuw %struct.ChContext, ptr %152, i32 0, i32 1
  store i32 %149, ptr %153, align 4, !tbaa !54
  %154 = load i32, ptr %5, align 4, !tbaa !50
  %155 = icmp slt i32 %154, 0
  br i1 %155, label %156, label %159

156:                                              ; preds = %148
  %157 = load i32, ptr %5, align 4, !tbaa !50
  %158 = sub nsw i32 0, %157
  br label %160

159:                                              ; preds = %148
  br label %160

160:                                              ; preds = %159, %156
  %161 = phi i32 [ %158, %156 ], [ 0, %159 ]
  %162 = load ptr, ptr %4, align 8, !tbaa !29
  %163 = getelementptr inbounds nuw %struct.RKAContext, ptr %162, i32 0, i32 2
  %164 = getelementptr inbounds [2 x %struct.ChContext], ptr %163, i64 0, i64 1
  %165 = getelementptr inbounds nuw %struct.ChContext, ptr %164, i32 0, i32 1
  store i32 %161, ptr %165, align 4, !tbaa !54
  %166 = load i32, ptr %5, align 4, !tbaa !50
  %167 = icmp slt i32 %166, 0
  br i1 %167, label %168, label %189

168:                                              ; preds = %160
  %169 = load ptr, ptr %4, align 8, !tbaa !29
  %170 = getelementptr inbounds nuw %struct.RKAContext, ptr %169, i32 0, i32 2
  %171 = getelementptr inbounds [2 x %struct.ChContext], ptr %170, i64 0, i64 0
  %172 = getelementptr inbounds nuw %struct.ChContext, ptr %171, i32 0, i32 1
  %173 = load i32, ptr %172, align 4, !tbaa !54
  %174 = call i32 @av_clip_c(i32 noundef %173, i32 noundef 1, i32 noundef 8) #10
  %175 = load ptr, ptr %4, align 8, !tbaa !29
  %176 = getelementptr inbounds nuw %struct.RKAContext, ptr %175, i32 0, i32 2
  %177 = getelementptr inbounds [2 x %struct.ChContext], ptr %176, i64 0, i64 0
  %178 = getelementptr inbounds nuw %struct.ChContext, ptr %177, i32 0, i32 1
  store i32 %174, ptr %178, align 4, !tbaa !54
  %179 = load ptr, ptr %4, align 8, !tbaa !29
  %180 = getelementptr inbounds nuw %struct.RKAContext, ptr %179, i32 0, i32 2
  %181 = getelementptr inbounds [2 x %struct.ChContext], ptr %180, i64 0, i64 1
  %182 = getelementptr inbounds nuw %struct.ChContext, ptr %181, i32 0, i32 1
  %183 = load i32, ptr %182, align 4, !tbaa !54
  %184 = call i32 @av_clip_c(i32 noundef %183, i32 noundef 1, i32 noundef 8) #10
  %185 = load ptr, ptr %4, align 8, !tbaa !29
  %186 = getelementptr inbounds nuw %struct.RKAContext, ptr %185, i32 0, i32 2
  %187 = getelementptr inbounds [2 x %struct.ChContext], ptr %186, i64 0, i64 1
  %188 = getelementptr inbounds nuw %struct.ChContext, ptr %187, i32 0, i32 1
  store i32 %184, ptr %188, align 4, !tbaa !54
  br label %189

189:                                              ; preds = %168, %160
  %190 = load ptr, ptr %3, align 8, !tbaa !4
  %191 = load i32, ptr %5, align 4, !tbaa !50
  call void (ptr, i32, ptr, ...) @av_log(ptr noundef %190, i32 noundef 48, ptr noundef @.str.2, i32 noundef %191)
  store i32 0, ptr %2, align 4
  store i32 1, ptr %6, align 4
  br label %192

192:                                              ; preds = %189, %59, %35, %14
  call void @llvm.lifetime.end.p0(i64 4, ptr %5) #9
  call void @llvm.lifetime.end.p0(i64 8, ptr %4) #9
  %193 = load i32, ptr %2, align 4
  ret i32 %193
}