; Function Attrs: cold nounwind optsize uwtable
define internal range(i32 -1094995529, 1) i32 @rka_decode_init(ptr noundef %0) #0 {
  %2 = getelementptr inbounds nuw i8, ptr %0, i64 32
  %3 = load ptr, ptr %2, align 8, !tbaa !4
  %4 = getelementptr inbounds nuw i8, ptr %0, i64 80
  %5 = load i32, ptr %4, align 8, !tbaa !27
  %6 = icmp slt i32 %5, 16
  br i1 %6, label %62, label %7

7:                                                ; preds = %1
  %8 = getelementptr inbounds nuw i8, ptr %0, i64 72
  %9 = load ptr, ptr %8, align 8, !tbaa !28
  %10 = getelementptr inbounds nuw i8, ptr %9, i64 13
  %11 = load i8, ptr %10, align 1, !tbaa !29
  %12 = zext i8 %11 to i32
  %13 = getelementptr inbounds nuw i8, ptr %0, i64 652
  store i32 %12, ptr %13, align 4, !tbaa !30
  %14 = getelementptr inbounds nuw i8, ptr %3, i64 2164384
  store i32 %12, ptr %14, align 8, !tbaa !31
  switch i8 %11, label %62 [
    i8 8, label %16
    i8 16, label %15
  ]

15:                                               ; preds = %7
  br label %16

16:                                               ; preds = %7, %15
  %.sink = phi i32 [ 6, %15 ], [ 5, %7 ]
  %17 = getelementptr inbounds nuw i8, ptr %0, i64 348
  store i32 %.sink, ptr %17, align 4, !tbaa !37
  %18 = getelementptr inbounds nuw i8, ptr %0, i64 352
  tail call void @av_channel_layout_uninit(ptr noundef nonnull %18) #10
  %19 = load ptr, ptr %8, align 8, !tbaa !28
  %20 = getelementptr inbounds nuw i8, ptr %19, i64 12
  %21 = load i8, ptr %20, align 1, !tbaa !29
  %22 = zext i8 %21 to i32
  %23 = getelementptr inbounds nuw i8, ptr %0, i64 356
  store i32 %22, ptr %23, align 4, !tbaa !38
  %24 = getelementptr inbounds nuw i8, ptr %3, i64 2164392
  store i32 %22, ptr %24, align 8, !tbaa !39
  %25 = add i8 %21, -3
  %or.cond = icmp ult i8 %25, -2
  br i1 %or.cond, label %62, label %26

26:                                               ; preds = %16
  %27 = load i32, ptr %13, align 4, !tbaa !30
  %28 = ashr i32 %27, 3
  %29 = mul nsw i32 %28, %22
  %30 = getelementptr inbounds nuw i8, ptr %3, i64 2164388
  store i32 %29, ptr %30, align 4, !tbaa !40
  %31 = getelementptr inbounds nuw i8, ptr %19, i64 4
  %32 = load i32, ptr %31, align 1, !tbaa !29
  %33 = udiv i32 %32, %29
  %34 = getelementptr inbounds nuw i8, ptr %3, i64 2164408
  store i32 %33, ptr %34, align 8, !tbaa !41
  %35 = getelementptr inbounds nuw i8, ptr %3, i64 2164412
  store i32 %33, ptr %35, align 4, !tbaa !42
  %36 = sdiv i32 131072, %29
  %37 = getelementptr inbounds nuw i8, ptr %3, i64 2164400
  store i32 %36, ptr %37, align 8, !tbaa !43
  %38 = urem i32 %33, %36
  %39 = getelementptr inbounds nuw i8, ptr %3, i64 2164404
  store i32 %38, ptr %39, align 4, !tbaa !44
  %40 = getelementptr inbounds nuw i8, ptr %19, i64 15
  %41 = load i8, ptr %40, align 1, !tbaa !29
  %42 = and i8 %41, 1
  %43 = zext nneg i8 %42 to i32
  %44 = getelementptr inbounds nuw i8, ptr %3, i64 2164396
  store i32 %43, ptr %44, align 4, !tbaa !45
  %45 = getelementptr inbounds nuw i8, ptr %19, i64 14
  %46 = load i8, ptr %45, align 1, !tbaa !29
  %47 = and i8 %46, 15
  %48 = zext nneg i8 %47 to i32
  %49 = load i8, ptr %40, align 1, !tbaa !29
  %50 = and i8 %49, 4
  %.not = icmp eq i8 %50, 0
  %51 = sub nsw i32 0, %48
  %spec.select = select i1 %.not, i32 %48, i32 %51
  %52 = icmp slt i32 %spec.select, 0
  %53 = select i1 %52, i32 2, i32 %spec.select
  %54 = getelementptr inbounds nuw i8, ptr %3, i64 48
  %55 = getelementptr inbounds nuw i8, ptr %3, i64 1082216
  store i32 %53, ptr %55, align 8, !tbaa !46
  store i32 %53, ptr %54, align 8, !tbaa !46
  %56 = sub nsw i32 0, %spec.select
  %57 = select i1 %52, i32 %56, i32 0
  %58 = getelementptr inbounds nuw i8, ptr %3, i64 52
  store i32 %57, ptr %58, align 4, !tbaa !49
  %59 = getelementptr inbounds nuw i8, ptr %3, i64 1082220
  store i32 %57, ptr %59, align 4, !tbaa !49
  br i1 %52, label %60, label %61

60:                                               ; preds = %26
  %.0.i = tail call i32 @llvm.smin.i32(i32 %56, i32 8)
  store i32 %.0.i, ptr %58, align 4, !tbaa !49
  store i32 %.0.i, ptr %59, align 4, !tbaa !49
  br label %61

61:                                               ; preds = %60, %26
  tail call void (ptr, i32, ptr, ...) @av_log(ptr noundef nonnull %0, i32 noundef 48, ptr noundef nonnull @.str.2, i32 noundef %spec.select) #10
  br label %62

62:                                               ; preds = %16, %7, %1, %61
  %.048 = phi i32 [ 0, %61 ], [ -1094995529, %1 ], [ -1094995529, %7 ], [ -1094995529, %16 ]
  ret i32 %.048
}